(lp0
S'../../data/image/ukbench00000.sift'
p1
aS'../../data/image/ukbench00001.sift'
p2
aS'../../data/image/ukbench00002.sift'
p3
aS'../../data/image/ukbench00003.sift'
p4
aS'../../data/image/ukbench00004.sift'
p5
aS'../../data/image/ukbench00005.sift'
p6
aS'../../data/image/ukbench00006.sift'
p7
aS'../../data/image/ukbench00007.sift'
p8
aS'../../data/image/ukbench00008.sift'
p9
aS'../../data/image/ukbench00009.sift'
p10
aS'../../data/image/ukbench00010.sift'
p11
aS'../../data/image/ukbench00011.sift'
p12
aS'../../data/image/ukbench00012.sift'
p13
aS'../../data/image/ukbench00013.sift'
p14
aS'../../data/image/ukbench00014.sift'
p15
aS'../../data/image/ukbench00015.sift'
p16
aS'../../data/image/ukbench00016.sift'
p17
aS'../../data/image/ukbench00017.sift'
p18
aS'../../data/image/ukbench00018.sift'
p19
aS'../../data/image/ukbench00019.sift'
p20
aS'../../data/image/ukbench00020.sift'
p21
aS'../../data/image/ukbench00021.sift'
p22
aS'../../data/image/ukbench00022.sift'
p23
aS'../../data/image/ukbench00023.sift'
p24
aS'../../data/image/ukbench00024.sift'
p25
aS'../../data/image/ukbench00025.sift'
p26
aS'../../data/image/ukbench00026.sift'
p27
aS'../../data/image/ukbench00027.sift'
p28
aS'../../data/image/ukbench00028.sift'
p29
aS'../../data/image/ukbench00029.sift'
p30
aS'../../data/image/ukbench00030.sift'
p31
aS'../../data/image/ukbench00031.sift'
p32
aS'../../data/image/ukbench00032.sift'
p33
aS'../../data/image/ukbench00033.sift'
p34
aS'../../data/image/ukbench00034.sift'
p35
aS'../../data/image/ukbench00035.sift'
p36
aS'../../data/image/ukbench00036.sift'
p37
aS'../../data/image/ukbench00037.sift'
p38
aS'../../data/image/ukbench00038.sift'
p39
aS'../../data/image/ukbench00039.sift'
p40
aS'../../data/image/ukbench00040.sift'
p41
aS'../../data/image/ukbench00041.sift'
p42
aS'../../data/image/ukbench00042.sift'
p43
aS'../../data/image/ukbench00043.sift'
p44
aS'../../data/image/ukbench00044.sift'
p45
aS'../../data/image/ukbench00045.sift'
p46
aS'../../data/image/ukbench00046.sift'
p47
aS'../../data/image/ukbench00047.sift'
p48
aS'../../data/image/ukbench00048.sift'
p49
aS'../../data/image/ukbench00049.sift'
p50
aS'../../data/image/ukbench00050.sift'
p51
aS'../../data/image/ukbench00051.sift'
p52
aS'../../data/image/ukbench00052.sift'
p53
aS'../../data/image/ukbench00053.sift'
p54
aS'../../data/image/ukbench00054.sift'
p55
aS'../../data/image/ukbench00055.sift'
p56
aS'../../data/image/ukbench00056.sift'
p57
aS'../../data/image/ukbench00057.sift'
p58
aS'../../data/image/ukbench00058.sift'
p59
aS'../../data/image/ukbench00059.sift'
p60
aS'../../data/image/ukbench00060.sift'
p61
aS'../../data/image/ukbench00061.sift'
p62
aS'../../data/image/ukbench00062.sift'
p63
aS'../../data/image/ukbench00063.sift'
p64
aS'../../data/image/ukbench00064.sift'
p65
aS'../../data/image/ukbench00065.sift'
p66
aS'../../data/image/ukbench00066.sift'
p67
aS'../../data/image/ukbench00067.sift'
p68
aS'../../data/image/ukbench00068.sift'
p69
aS'../../data/image/ukbench00069.sift'
p70
aS'../../data/image/ukbench00070.sift'
p71
aS'../../data/image/ukbench00071.sift'
p72
aS'../../data/image/ukbench00072.sift'
p73
aS'../../data/image/ukbench00073.sift'
p74
aS'../../data/image/ukbench00074.sift'
p75
aS'../../data/image/ukbench00075.sift'
p76
aS'../../data/image/ukbench00076.sift'
p77
aS'../../data/image/ukbench00077.sift'
p78
aS'../../data/image/ukbench00078.sift'
p79
aS'../../data/image/ukbench00079.sift'
p80
aS'../../data/image/ukbench00080.sift'
p81
aS'../../data/image/ukbench00081.sift'
p82
aS'../../data/image/ukbench00082.sift'
p83
aS'../../data/image/ukbench00083.sift'
p84
aS'../../data/image/ukbench00084.sift'
p85
aS'../../data/image/ukbench00085.sift'
p86
aS'../../data/image/ukbench00086.sift'
p87
aS'../../data/image/ukbench00087.sift'
p88
aS'../../data/image/ukbench00088.sift'
p89
aS'../../data/image/ukbench00089.sift'
p90
aS'../../data/image/ukbench00090.sift'
p91
aS'../../data/image/ukbench00091.sift'
p92
aS'../../data/image/ukbench00092.sift'
p93
aS'../../data/image/ukbench00093.sift'
p94
aS'../../data/image/ukbench00094.sift'
p95
aS'../../data/image/ukbench00095.sift'
p96
aS'../../data/image/ukbench00096.sift'
p97
aS'../../data/image/ukbench00097.sift'
p98
aS'../../data/image/ukbench00098.sift'
p99
aS'../../data/image/ukbench00099.sift'
p100
aS'../../data/image/ukbench00100.sift'
p101
aS'../../data/image/ukbench00101.sift'
p102
aS'../../data/image/ukbench00102.sift'
p103
aS'../../data/image/ukbench00103.sift'
p104
aS'../../data/image/ukbench00104.sift'
p105
aS'../../data/image/ukbench00105.sift'
p106
aS'../../data/image/ukbench00106.sift'
p107
aS'../../data/image/ukbench00107.sift'
p108
aS'../../data/image/ukbench00108.sift'
p109
aS'../../data/image/ukbench00109.sift'
p110
aS'../../data/image/ukbench00110.sift'
p111
aS'../../data/image/ukbench00111.sift'
p112
aS'../../data/image/ukbench00112.sift'
p113
aS'../../data/image/ukbench00113.sift'
p114
aS'../../data/image/ukbench00114.sift'
p115
aS'../../data/image/ukbench00115.sift'
p116
aS'../../data/image/ukbench00116.sift'
p117
aS'../../data/image/ukbench00117.sift'
p118
aS'../../data/image/ukbench00118.sift'
p119
aS'../../data/image/ukbench00119.sift'
p120
aS'../../data/image/ukbench00120.sift'
p121
aS'../../data/image/ukbench00121.sift'
p122
aS'../../data/image/ukbench00122.sift'
p123
aS'../../data/image/ukbench00123.sift'
p124
aS'../../data/image/ukbench00124.sift'
p125
aS'../../data/image/ukbench00125.sift'
p126
aS'../../data/image/ukbench00126.sift'
p127
aS'../../data/image/ukbench00127.sift'
p128
aS'../../data/image/ukbench00128.sift'
p129
aS'../../data/image/ukbench00129.sift'
p130
aS'../../data/image/ukbench00130.sift'
p131
aS'../../data/image/ukbench00131.sift'
p132
aS'../../data/image/ukbench00132.sift'
p133
aS'../../data/image/ukbench00133.sift'
p134
aS'../../data/image/ukbench00134.sift'
p135
aS'../../data/image/ukbench00135.sift'
p136
aS'../../data/image/ukbench00136.sift'
p137
aS'../../data/image/ukbench00137.sift'
p138
aS'../../data/image/ukbench00138.sift'
p139
aS'../../data/image/ukbench00139.sift'
p140
aS'../../data/image/ukbench00140.sift'
p141
aS'../../data/image/ukbench00141.sift'
p142
aS'../../data/image/ukbench00142.sift'
p143
aS'../../data/image/ukbench00143.sift'
p144
aS'../../data/image/ukbench00144.sift'
p145
aS'../../data/image/ukbench00145.sift'
p146
aS'../../data/image/ukbench00146.sift'
p147
aS'../../data/image/ukbench00147.sift'
p148
aS'../../data/image/ukbench00148.sift'
p149
aS'../../data/image/ukbench00149.sift'
p150
aS'../../data/image/ukbench00150.sift'
p151
aS'../../data/image/ukbench00151.sift'
p152
aS'../../data/image/ukbench00152.sift'
p153
aS'../../data/image/ukbench00153.sift'
p154
aS'../../data/image/ukbench00154.sift'
p155
aS'../../data/image/ukbench00155.sift'
p156
aS'../../data/image/ukbench00156.sift'
p157
aS'../../data/image/ukbench00157.sift'
p158
aS'../../data/image/ukbench00158.sift'
p159
aS'../../data/image/ukbench00159.sift'
p160
aS'../../data/image/ukbench00160.sift'
p161
aS'../../data/image/ukbench00161.sift'
p162
aS'../../data/image/ukbench00162.sift'
p163
aS'../../data/image/ukbench00163.sift'
p164
aS'../../data/image/ukbench00164.sift'
p165
aS'../../data/image/ukbench00165.sift'
p166
aS'../../data/image/ukbench00166.sift'
p167
aS'../../data/image/ukbench00167.sift'
p168
aS'../../data/image/ukbench00168.sift'
p169
aS'../../data/image/ukbench00169.sift'
p170
aS'../../data/image/ukbench00170.sift'
p171
aS'../../data/image/ukbench00171.sift'
p172
aS'../../data/image/ukbench00172.sift'
p173
aS'../../data/image/ukbench00173.sift'
p174
aS'../../data/image/ukbench00174.sift'
p175
aS'../../data/image/ukbench00175.sift'
p176
aS'../../data/image/ukbench00176.sift'
p177
aS'../../data/image/ukbench00177.sift'
p178
aS'../../data/image/ukbench00178.sift'
p179
aS'../../data/image/ukbench00179.sift'
p180
aS'../../data/image/ukbench00180.sift'
p181
aS'../../data/image/ukbench00181.sift'
p182
aS'../../data/image/ukbench00182.sift'
p183
aS'../../data/image/ukbench00183.sift'
p184
aS'../../data/image/ukbench00184.sift'
p185
aS'../../data/image/ukbench00185.sift'
p186
aS'../../data/image/ukbench00186.sift'
p187
aS'../../data/image/ukbench00187.sift'
p188
aS'../../data/image/ukbench00188.sift'
p189
aS'../../data/image/ukbench00189.sift'
p190
aS'../../data/image/ukbench00190.sift'
p191
aS'../../data/image/ukbench00191.sift'
p192
aS'../../data/image/ukbench00192.sift'
p193
aS'../../data/image/ukbench00193.sift'
p194
aS'../../data/image/ukbench00194.sift'
p195
aS'../../data/image/ukbench00195.sift'
p196
aS'../../data/image/ukbench00196.sift'
p197
aS'../../data/image/ukbench00197.sift'
p198
aS'../../data/image/ukbench00198.sift'
p199
aS'../../data/image/ukbench00199.sift'
p200
aS'../../data/image/ukbench00200.sift'
p201
aS'../../data/image/ukbench00201.sift'
p202
aS'../../data/image/ukbench00202.sift'
p203
aS'../../data/image/ukbench00203.sift'
p204
aS'../../data/image/ukbench00204.sift'
p205
aS'../../data/image/ukbench00205.sift'
p206
aS'../../data/image/ukbench00206.sift'
p207
aS'../../data/image/ukbench00207.sift'
p208
aS'../../data/image/ukbench00208.sift'
p209
aS'../../data/image/ukbench00209.sift'
p210
aS'../../data/image/ukbench00210.sift'
p211
aS'../../data/image/ukbench00211.sift'
p212
aS'../../data/image/ukbench00212.sift'
p213
aS'../../data/image/ukbench00213.sift'
p214
aS'../../data/image/ukbench00214.sift'
p215
aS'../../data/image/ukbench00215.sift'
p216
aS'../../data/image/ukbench00216.sift'
p217
aS'../../data/image/ukbench00217.sift'
p218
aS'../../data/image/ukbench00218.sift'
p219
aS'../../data/image/ukbench00219.sift'
p220
aS'../../data/image/ukbench00220.sift'
p221
aS'../../data/image/ukbench00221.sift'
p222
aS'../../data/image/ukbench00222.sift'
p223
aS'../../data/image/ukbench00223.sift'
p224
aS'../../data/image/ukbench00224.sift'
p225
aS'../../data/image/ukbench00225.sift'
p226
aS'../../data/image/ukbench00226.sift'
p227
aS'../../data/image/ukbench00227.sift'
p228
aS'../../data/image/ukbench00228.sift'
p229
aS'../../data/image/ukbench00229.sift'
p230
aS'../../data/image/ukbench00230.sift'
p231
aS'../../data/image/ukbench00231.sift'
p232
aS'../../data/image/ukbench00232.sift'
p233
aS'../../data/image/ukbench00233.sift'
p234
aS'../../data/image/ukbench00234.sift'
p235
aS'../../data/image/ukbench00235.sift'
p236
aS'../../data/image/ukbench00236.sift'
p237
aS'../../data/image/ukbench00237.sift'
p238
aS'../../data/image/ukbench00238.sift'
p239
aS'../../data/image/ukbench00239.sift'
p240
aS'../../data/image/ukbench00240.sift'
p241
aS'../../data/image/ukbench00241.sift'
p242
aS'../../data/image/ukbench00242.sift'
p243
aS'../../data/image/ukbench00243.sift'
p244
aS'../../data/image/ukbench00244.sift'
p245
aS'../../data/image/ukbench00245.sift'
p246
aS'../../data/image/ukbench00246.sift'
p247
aS'../../data/image/ukbench00247.sift'
p248
aS'../../data/image/ukbench00248.sift'
p249
aS'../../data/image/ukbench00249.sift'
p250
aS'../../data/image/ukbench00250.sift'
p251
aS'../../data/image/ukbench00251.sift'
p252
aS'../../data/image/ukbench00252.sift'
p253
aS'../../data/image/ukbench00253.sift'
p254
aS'../../data/image/ukbench00254.sift'
p255
aS'../../data/image/ukbench00255.sift'
p256
aS'../../data/image/ukbench00256.sift'
p257
aS'../../data/image/ukbench00257.sift'
p258
aS'../../data/image/ukbench00258.sift'
p259
aS'../../data/image/ukbench00259.sift'
p260
aS'../../data/image/ukbench00260.sift'
p261
aS'../../data/image/ukbench00261.sift'
p262
aS'../../data/image/ukbench00262.sift'
p263
aS'../../data/image/ukbench00263.sift'
p264
aS'../../data/image/ukbench00264.sift'
p265
aS'../../data/image/ukbench00265.sift'
p266
aS'../../data/image/ukbench00266.sift'
p267
aS'../../data/image/ukbench00267.sift'
p268
aS'../../data/image/ukbench00268.sift'
p269
aS'../../data/image/ukbench00269.sift'
p270
aS'../../data/image/ukbench00270.sift'
p271
aS'../../data/image/ukbench00271.sift'
p272
aS'../../data/image/ukbench00272.sift'
p273
aS'../../data/image/ukbench00273.sift'
p274
aS'../../data/image/ukbench00274.sift'
p275
aS'../../data/image/ukbench00275.sift'
p276
aS'../../data/image/ukbench00276.sift'
p277
aS'../../data/image/ukbench00277.sift'
p278
aS'../../data/image/ukbench00278.sift'
p279
aS'../../data/image/ukbench00279.sift'
p280
aS'../../data/image/ukbench00280.sift'
p281
aS'../../data/image/ukbench00281.sift'
p282
aS'../../data/image/ukbench00282.sift'
p283
aS'../../data/image/ukbench00283.sift'
p284
aS'../../data/image/ukbench00284.sift'
p285
aS'../../data/image/ukbench00285.sift'
p286
aS'../../data/image/ukbench00286.sift'
p287
aS'../../data/image/ukbench00287.sift'
p288
aS'../../data/image/ukbench00288.sift'
p289
aS'../../data/image/ukbench00289.sift'
p290
aS'../../data/image/ukbench00290.sift'
p291
aS'../../data/image/ukbench00291.sift'
p292
aS'../../data/image/ukbench00292.sift'
p293
aS'../../data/image/ukbench00293.sift'
p294
aS'../../data/image/ukbench00294.sift'
p295
aS'../../data/image/ukbench00295.sift'
p296
aS'../../data/image/ukbench00296.sift'
p297
aS'../../data/image/ukbench00297.sift'
p298
aS'../../data/image/ukbench00298.sift'
p299
aS'../../data/image/ukbench00299.sift'
p300
aS'../../data/image/ukbench00300.sift'
p301
aS'../../data/image/ukbench00302.sift'
p302
aS'../../data/image/ukbench00303.sift'
p303
aS'../../data/image/ukbench00305.sift'
p304
aS'../../data/image/ukbench00306.sift'
p305
aS'../../data/image/ukbench00307.sift'
p306
aS'../../data/image/ukbench00308.sift'
p307
aS'../../data/image/ukbench00310.sift'
p308
aS'../../data/image/ukbench00311.sift'
p309
aS'../../data/image/ukbench00312.sift'
p310
aS'../../data/image/ukbench00314.sift'
p311
aS'../../data/image/ukbench00315.sift'
p312
aS'../../data/image/ukbench00316.sift'
p313
aS'../../data/image/ukbench00318.sift'
p314
aS'../../data/image/ukbench00319.sift'
p315
aS'../../data/image/ukbench00320.sift'
p316
aS'../../data/image/ukbench00322.sift'
p317
aS'../../data/image/ukbench00324.sift'
p318
aS'../../data/image/ukbench00325.sift'
p319
aS'../../data/image/ukbench00326.sift'
p320
aS'../../data/image/ukbench00328.sift'
p321
aS'../../data/image/ukbench00329.sift'
p322
aS'../../data/image/ukbench00330.sift'
p323
aS'../../data/image/ukbench00331.sift'
p324
aS'../../data/image/ukbench00332.sift'
p325
aS'../../data/image/ukbench00334.sift'
p326
aS'../../data/image/ukbench00335.sift'
p327
aS'../../data/image/ukbench00336.sift'
p328
aS'../../data/image/ukbench00338.sift'
p329
aS'../../data/image/ukbench00339.sift'
p330
aS'../../data/image/ukbench00340.sift'
p331
aS'../../data/image/ukbench00342.sift'
p332
aS'../../data/image/ukbench00343.sift'
p333
aS'../../data/image/ukbench00345.sift'
p334
aS'../../data/image/ukbench00346.sift'
p335
aS'../../data/image/ukbench00347.sift'
p336
aS'../../data/image/ukbench00349.sift'
p337
aS'../../data/image/ukbench00350.sift'
p338
aS'../../data/image/ukbench00351.sift'
p339
aS'../../data/image/ukbench00353.sift'
p340
aS'../../data/image/ukbench00355.sift'
p341
aS'../../data/image/ukbench00356.sift'
p342
aS'../../data/image/ukbench00357.sift'
p343
aS'../../data/image/ukbench00358.sift'
p344
aS'../../data/image/ukbench00359.sift'
p345
aS'../../data/image/ukbench00360.sift'
p346
aS'../../data/image/ukbench00361.sift'
p347
aS'../../data/image/ukbench00362.sift'
p348
aS'../../data/image/ukbench00363.sift'
p349
aS'../../data/image/ukbench00365.sift'
p350
aS'../../data/image/ukbench00367.sift'
p351
aS'../../data/image/ukbench00369.sift'
p352
aS'../../data/image/ukbench00370.sift'
p353
aS'../../data/image/ukbench00371.sift'
p354
aS'../../data/image/ukbench00372.sift'
p355
aS'../../data/image/ukbench00373.sift'
p356
aS'../../data/image/ukbench00374.sift'
p357
aS'../../data/image/ukbench00376.sift'
p358
aS'../../data/image/ukbench00377.sift'
p359
aS'../../data/image/ukbench00379.sift'
p360
aS'../../data/image/ukbench00380.sift'
p361
aS'../../data/image/ukbench00382.sift'
p362
aS'../../data/image/ukbench00383.sift'
p363
aS'../../data/image/ukbench00384.sift'
p364
aS'../../data/image/ukbench00386.sift'
p365
aS'../../data/image/ukbench00387.sift'
p366
aS'../../data/image/ukbench00389.sift'
p367
aS'../../data/image/ukbench00390.sift'
p368
aS'../../data/image/ukbench00392.sift'
p369
aS'../../data/image/ukbench00393.sift'
p370
aS'../../data/image/ukbench00394.sift'
p371
aS'../../data/image/ukbench00395.sift'
p372
aS'../../data/image/ukbench00397.sift'
p373
aS'../../data/image/ukbench00399.sift'
p374
aS'../../data/image/ukbench00400.sift'
p375
aS'../../data/image/ukbench00402.sift'
p376
aS'../../data/image/ukbench00403.sift'
p377
aS'../../data/image/ukbench00405.sift'
p378
aS'../../data/image/ukbench00407.sift'
p379
aS'../../data/image/ukbench00409.sift'
p380
aS'../../data/image/ukbench00411.sift'
p381
aS'../../data/image/ukbench00412.sift'
p382
aS'../../data/image/ukbench00413.sift'
p383
aS'../../data/image/ukbench00415.sift'
p384
aS'../../data/image/ukbench00416.sift'
p385
aS'../../data/image/ukbench00418.sift'
p386
aS'../../data/image/ukbench00419.sift'
p387
aS'../../data/image/ukbench00420.sift'
p388
aS'../../data/image/ukbench00422.sift'
p389
aS'../../data/image/ukbench00423.sift'
p390
aS'../../data/image/ukbench00425.sift'
p391
aS'../../data/image/ukbench00426.sift'
p392
aS'../../data/image/ukbench00428.sift'
p393
aS'../../data/image/ukbench00429.sift'
p394
aS'../../data/image/ukbench00431.sift'
p395
aS'../../data/image/ukbench00432.sift'
p396
aS'../../data/image/ukbench00433.sift'
p397
aS'../../data/image/ukbench00435.sift'
p398
aS'../../data/image/ukbench00437.sift'
p399
aS'../../data/image/ukbench00438.sift'
p400
aS'../../data/image/ukbench00439.sift'
p401
aS'../../data/image/ukbench00440.sift'
p402
aS'../../data/image/ukbench00442.sift'
p403
aS'../../data/image/ukbench00444.sift'
p404
aS'../../data/image/ukbench00445.sift'
p405
aS'../../data/image/ukbench00446.sift'
p406
aS'../../data/image/ukbench00448.sift'
p407
aS'../../data/image/ukbench00449.sift'
p408
aS'../../data/image/ukbench00451.sift'
p409
aS'../../data/image/ukbench00453.sift'
p410
aS'../../data/image/ukbench00454.sift'
p411
aS'../../data/image/ukbench00456.sift'
p412
aS'../../data/image/ukbench00458.sift'
p413
aS'../../data/image/ukbench00459.sift'
p414
aS'../../data/image/ukbench00461.sift'
p415
aS'../../data/image/ukbench00463.sift'
p416
aS'../../data/image/ukbench00465.sift'
p417
aS'../../data/image/ukbench00466.sift'
p418
aS'../../data/image/ukbench00467.sift'
p419
aS'../../data/image/ukbench00468.sift'
p420
aS'../../data/image/ukbench00470.sift'
p421
aS'../../data/image/ukbench00472.sift'
p422
aS'../../data/image/ukbench00473.sift'
p423
aS'../../data/image/ukbench00475.sift'
p424
aS'../../data/image/ukbench00477.sift'
p425
aS'../../data/image/ukbench00479.sift'
p426
aS'../../data/image/ukbench00481.sift'
p427
aS'../../data/image/ukbench00483.sift'
p428
aS'../../data/image/ukbench00484.sift'
p429
aS'../../data/image/ukbench00486.sift'
p430
aS'../../data/image/ukbench00488.sift'
p431
aS'../../data/image/ukbench00490.sift'
p432
aS'../../data/image/ukbench00492.sift'
p433
aS'../../data/image/ukbench00493.sift'
p434
aS'../../data/image/ukbench00495.sift'
p435
aS'../../data/image/ukbench00496.sift'
p436
aS'../../data/image/ukbench00497.sift'
p437
aS'../../data/image/ukbench00498.sift'
p438
aS'../../data/image/ukbench00499.sift'
p439
a.