(lp0
S'/Users/Jake/Daily-Projects/Python/Homework/Content-based_Image_Retrieval/data/image/ukbench00000.sift'
p1
aS'/Users/Jake/Daily-Projects/Python/Homework/Content-based_Image_Retrieval/data/image/ukbench00001.sift'
p2
aS'/Users/Jake/Daily-Projects/Python/Homework/Content-based_Image_Retrieval/data/image/ukbench00002.sift'
p3
aS'/Users/Jake/Daily-Projects/Python/Homework/Content-based_Image_Retrieval/data/image/ukbench00003.sift'
p4
aS'/Users/Jake/Daily-Projects/Python/Homework/Content-based_Image_Retrieval/data/image/ukbench00004.sift'
p5
aS'/Users/Jake/Daily-Projects/Python/Homework/Content-based_Image_Retrieval/data/image/ukbench00005.sift'
p6
aS'/Users/Jake/Daily-Projects/Python/Homework/Content-based_Image_Retrieval/data/image/ukbench00006.sift'
p7
aS'/Users/Jake/Daily-Projects/Python/Homework/Content-based_Image_Retrieval/data/image/ukbench00007.sift'
p8
a.